; Function Attrs: nounwind uwtable
define range(i32 -1, 1) i32 @H5F__set_eoa(ptr nocapture noundef readonly %0, i32 noundef %1, i64 noundef %2) local_unnamed_addr #0 {
  %4 = getelementptr inbounds i8, ptr %0, i64 16
  %5 = load ptr, ptr %4, align 8
  %6 = load ptr, ptr %5, align 8
  %7 = tail call i32 @H5FD_set_eoa(ptr noundef %6, i32 noundef %1, i64 noundef %2) #22
  %8 = icmp slt i32 %7, 0
  br i1 %8, label %9, label %13

9:                                                ; preds = %3
  %10 = load i64, ptr @H5E_FILE_g, align 8
  %11 = load i64, ptr @H5E_CANTSET_g, align 8
  %12 = tail call i32 (ptr, ptr, i32, i64, i64, ptr, ...) @H5E_printf_stack(ptr noundef nonnull @.str.2, ptr noundef nonnull @__func__.H5F__set_eoa, i32 noundef 3520, i64 noundef %10, i64 noundef %11, ptr noundef nonnull @.str.148) #22
  br label %13

13:                                               ; preds = %3, %9
  %.0 = phi i32 [ -1, %9 ], [ 0, %3 ]
  ret i32 %.0
}